target datalayout = "e-m:e-p270:32:32-p271:32:32-p272:64:64-i64:64-i128:128-f80:128-n8:16:32:64-S128"
target triple = "x86_64-pc-linux-gnu"

%struct.Aig_Obj_t_ = type { %union.anon, ptr, ptr, i64, i32, i32, %union.anon.0 }
%union.anon = type { ptr }
%union.anon.0 = type { ptr }
%struct.Aig_Man_t_ = type { ptr, ptr, ptr, ptr, ptr, ptr, ptr, %struct.Aig_Obj_t_, i32, i32, i32, i32, i32, i32, [7 x i32], i32, ptr, i32, ptr, i32, ptr, i32, i32, i32, ptr, i32, i32, i32, i32, i32, ptr, ptr, i32, ptr, ptr, i32, ptr, ptr, i32, i32, i32, ptr, ptr, ptr, ptr, ptr, ptr, ptr, ptr, ptr, ptr, ptr, ptr, ptr, ptr, i32, ptr, ptr, ptr, ptr, i32, i64, i64, i64, ptr, ptr }
%struct.Gia_Man_t_ = type { ptr, ptr, i32, i32, i32, i32, ptr, ptr, i32, i32, i32, ptr, ptr, %struct.Vec_Int_t_, %struct.Vec_Int_t_, i32, i32, i32, %struct.Vec_Int_t_, ptr, ptr, ptr, i32, i32, i32, i32, ptr, ptr, ptr, ptr, ptr, i32, i32, ptr, i32, ptr, ptr, ptr, ptr, ptr, ptr, ptr, ptr, ptr, ptr, ptr, ptr, ptr, ptr, ptr, ptr, ptr, ptr, %struct.Vec_Int_t_, %struct.Vec_Int_t_, ptr, ptr, ptr, ptr, ptr, ptr, ptr, ptr, ptr, ptr, ptr, ptr, ptr, ptr, ptr, ptr, ptr, ptr, ptr, ptr, ptr, i32, float, float, ptr, ptr, i32, ptr, ptr, ptr, ptr, ptr, ptr, ptr, ptr, ptr, ptr, ptr, ptr, ptr, ptr, ptr, i64, i64, ptr, ptr, i32, i32, i32, i32, i32, i32, i32, i32, i32, i32, i32, i32, ptr, ptr, ptr, ptr, ptr, ptr, ptr, ptr, i32, i32, i32, ptr, i32, i32, ptr, ptr, ptr, ptr, ptr, ptr, i32, i32, ptr, %struct.Vec_Int_t_, %struct.Vec_Int_t_, %struct.Vec_Int_t_, ptr, ptr, ptr, i32, i32, i32, i32, ptr, ptr, ptr, ptr, ptr }
%struct.Vec_Int_t_ = type { i32, i32, ptr }
%struct.Vec_Ptr_t_ = type { i32, i32, ptr }
%struct.Gia_Obj_t_ = type <{ i64, i32 }>
%struct.Gia_Rpr_t_ = type { i32 }

; Function Attrs: inlinehint nounwind uwtable
define internal i32 @Aig_ObjIsCo(ptr noundef %0) #2 {
  %2 = alloca ptr, align 8
  store ptr %0, ptr %2, align 8, !tbaa !10
  %3 = load ptr, ptr %2, align 8, !tbaa !10
  %4 = getelementptr inbounds nuw %struct.Aig_Obj_t_, ptr %3, i32 0, i32 3
  %5 = load i64, ptr %4, align 8
  %6 = and i64 %5, 7
  %7 = trunc i64 %6 to i32
  %8 = icmp eq i32 %7, 3
  %9 = zext i1 %8 to i32
  ret i32 %9
}

; Function Attrs: inlinehint nounwind uwtable
define internal ptr @Vec_PtrEntry(ptr noundef %0, i32 noundef %1) #2 {
  %3 = alloca ptr, align 8
  %4 = alloca i32, align 4
  store ptr %0, ptr %3, align 8, !tbaa !64
  store i32 %1, ptr %4, align 4, !tbaa !26
  %5 = load ptr, ptr %3, align 8, !tbaa !64
  %6 = getelementptr inbounds nuw %struct.Vec_Ptr_t_, ptr %5, i32 0, i32 2
  %7 = load ptr, ptr %6, align 8, !tbaa !67
  %8 = load i32, ptr %4, align 4, !tbaa !26
  %9 = sext i32 %8 to i64
  %10 = getelementptr inbounds ptr, ptr %7, i64 %9
  %11 = load ptr, ptr %10, align 8, !tbaa !68
  ret ptr %11
}

; Function Attrs: inlinehint nounwind uwtable
define internal i32 @Vec_PtrSize(ptr noundef %0) #2 {
  %2 = alloca ptr, align 8
  store ptr %0, ptr %2, align 8, !tbaa !64
  %3 = load ptr, ptr %2, align 8, !tbaa !64
  %4 = getelementptr inbounds nuw %struct.Vec_Ptr_t_, ptr %3, i32 0, i32 1
  %5 = load i32, ptr %4, align 4, !tbaa !65
  ret i32 %5
}

; Function Attrs: inlinehint nounwind uwtable
define internal ptr @Aig_ManObj(ptr noundef %0, i32 noundef %1) #2 {
  %3 = alloca ptr, align 8
  %4 = alloca i32, align 4
  store ptr %0, ptr %3, align 8, !tbaa !8
  store i32 %1, ptr %4, align 4, !tbaa !26
  %5 = load ptr, ptr %3, align 8, !tbaa !8
  %6 = getelementptr inbounds nuw %struct.Aig_Man_t_, ptr %5, i32 0, i32 4
  %7 = load ptr, ptr %6, align 8, !tbaa !60
  %8 = icmp ne ptr %7, null
  br i1 %8, label %9, label %15

9:                                                ; preds = %2
  %10 = load ptr, ptr %3, align 8, !tbaa !8
  %11 = getelementptr inbounds nuw %struct.Aig_Man_t_, ptr %10, i32 0, i32 4
  %12 = load ptr, ptr %11, align 8, !tbaa !60
  %13 = load i32, ptr %4, align 4, !tbaa !26
  %14 = call ptr @Vec_PtrEntry(ptr noundef %12, i32 noundef %13)
  br label %16

15:                                               ; preds = %2
  br label %16

16:                                               ; preds = %15, %9
  %17 = phi ptr [ %14, %9 ], [ null, %15 ]
  ret ptr %17
}

; Function Attrs: inlinehint nounwind uwtable
define internal i32 @Abc_Lit2Var(i32 noundef %0) #2 {
  %2 = alloca i32, align 4
  store i32 %0, ptr %2, align 4, !tbaa !26
  %3 = load i32, ptr %2, align 4, !tbaa !26
  %4 = ashr i32 %3, 1
  ret i32 %4
}

; Function Attrs: inlinehint nounwind uwtable
define internal i32 @Gia_ObjValue(ptr noundef %0) #2 {
  %2 = alloca ptr, align 8
  store ptr %0, ptr %2, align 8, !tbaa !42
  %3 = load ptr, ptr %2, align 8, !tbaa !42
  %4 = getelementptr inbounds nuw %struct.Gia_Obj_t_, ptr %3, i32 0, i32 1
  %5 = load i32, ptr %4, align 4, !tbaa !95
  ret i32 %5
}

; Function Attrs: inlinehint nounwind uwtable
define internal i32 @Gia_ObjIsCo(ptr noundef %0) #2 {
  %2 = alloca ptr, align 8
  store ptr %0, ptr %2, align 8, !tbaa !42
  %3 = load ptr, ptr %2, align 8, !tbaa !42
  %4 = load i64, ptr %3, align 4
  %5 = lshr i64 %4, 31
  %6 = and i64 %5, 1
  %7 = trunc i64 %6 to i32
  %8 = icmp ne i32 %7, 0
  br i1 %8, label %9, label %15

9:                                                ; preds = %1
  %10 = load ptr, ptr %2, align 8, !tbaa !42
  %11 = load i64, ptr %10, align 4
  %12 = and i64 %11, 536870911
  %13 = trunc i64 %12 to i32
  %14 = icmp ne i32 %13, 536870911
  br label %15

15:                                               ; preds = %9, %1
  %16 = phi i1 [ false, %1 ], [ %14, %9 ]
  %17 = zext i1 %16 to i32
  ret i32 %17
}

; Function Attrs: inlinehint nounwind uwtable
define internal ptr @Gia_ManObj(ptr noundef %0, i32 noundef %1) #2 {
  %3 = alloca ptr, align 8
  %4 = alloca i32, align 4
  store ptr %0, ptr %3, align 8, !tbaa !3
  store i32 %1, ptr %4, align 4, !tbaa !26
  %5 = load ptr, ptr %3, align 8, !tbaa !3
  %6 = getelementptr inbounds nuw %struct.Gia_Man_t_, ptr %5, i32 0, i32 6
  %7 = load ptr, ptr %6, align 8, !tbaa !73
  %8 = load i32, ptr %4, align 4, !tbaa !26
  %9 = sext i32 %8 to i64
  %10 = getelementptr inbounds %struct.Gia_Obj_t_, ptr %7, i64 %9
  ret ptr %10
}

; Function Attrs: inlinehint nounwind uwtable
define internal void @Gia_ObjSetRepr(ptr noundef %0, i32 noundef %1, i32 noundef %2) #2 {
  %4 = alloca ptr, align 8
  %5 = alloca i32, align 4
  %6 = alloca i32, align 4
  store ptr %0, ptr %4, align 8, !tbaa !3
  store i32 %1, ptr %5, align 4, !tbaa !26
  store i32 %2, ptr %6, align 4, !tbaa !26
  %7 = load i32, ptr %6, align 4, !tbaa !26
  %8 = load ptr, ptr %4, align 8, !tbaa !3
  %9 = getelementptr inbounds nuw %struct.Gia_Man_t_, ptr %8, i32 0, i32 27
  %10 = load ptr, ptr %9, align 8, !tbaa !100
  %11 = load i32, ptr %5, align 4, !tbaa !26
  %12 = sext i32 %11 to i64
  %13 = getelementptr inbounds %struct.Gia_Rpr_t_, ptr %10, i64 %12
  %14 = load i32, ptr %13, align 4
  %15 = and i32 %7, 268435455
  %16 = and i32 %14, -268435456
  %17 = or i32 %16, %15
  store i32 %17, ptr %13, align 4
  ret void
}

; Function Attrs: inlinehint nounwind uwtable
define internal i32 @Gia_ManObjNum(ptr noundef %0) #2 {
  %2 = alloca ptr, align 8
  store ptr %0, ptr %2, align 8, !tbaa !3
  %3 = load ptr, ptr %2, align 8, !tbaa !3
  %4 = getelementptr inbounds nuw %struct.Gia_Man_t_, ptr %3, i32 0, i32 4
  %5 = load i32, ptr %4, align 8, !tbaa !75
  ret i32 %5
}

; Function Attrs: nounwind uwtable
define void @Gia_ManReprFromAigRepr(ptr noundef %0, ptr noundef %1) #0 {
  %3 = alloca ptr, align 8
  %4 = alloca ptr, align 8
  %5 = alloca ptr, align 8
  %6 = alloca ptr, align 8
  %7 = alloca ptr, align 8
  %8 = alloca i32, align 4
  store ptr %0, ptr %3, align 8, !tbaa !8
  store ptr %1, ptr %4, align 8, !tbaa !3
  call void @llvm.lifetime.start.p0(i64 8, ptr %5) #12
  call void @llvm.lifetime.start.p0(i64 8, ptr %6) #12
  call void @llvm.lifetime.start.p0(i64 8, ptr %7) #12
  call void @llvm.lifetime.start.p0(i64 4, ptr %8) #12
  %9 = load ptr, ptr %4, align 8, !tbaa !3
  %10 = call i32 @Gia_ManObjNum(ptr noundef %9)
  %11 = sext i32 %10 to i64
  %12 = call noalias ptr @calloc(i64 noundef %11, i64 noundef 4) #13
  %13 = load ptr, ptr %4, align 8, !tbaa !3
  %14 = getelementptr inbounds nuw %struct.Gia_Man_t_, ptr %13, i32 0, i32 27
  store ptr %12, ptr %14, align 8, !tbaa !100
  store i32 0, ptr %8, align 4, !tbaa !26
  br label %15

15:                                               ; preds = %23, %2
  %16 = load i32, ptr %8, align 4, !tbaa !26
  %17 = load ptr, ptr %4, align 8, !tbaa !3
  %18 = call i32 @Gia_ManObjNum(ptr noundef %17)
  %19 = icmp slt i32 %16, %18
  br i1 %19, label %20, label %26

20:                                               ; preds = %15
  %21 = load ptr, ptr %4, align 8, !tbaa !3
  %22 = load i32, ptr %8, align 4, !tbaa !26
  call void @Gia_ObjSetRepr(ptr noundef %21, i32 noundef %22, i32 noundef 268435455)
  br label %23

23:                                               ; preds = %20
  %24 = load i32, ptr %8, align 4, !tbaa !26
  %25 = add nsw i32 %24, 1
  store i32 %25, ptr %8, align 4, !tbaa !26
  br label %15, !llvm.loop !102

26:                                               ; preds = %15
  store i32 0, ptr %8, align 4, !tbaa !26
  br label %27

27:                                               ; preds = %54, %26
  %28 = load i32, ptr %8, align 4, !tbaa !26
  %29 = load ptr, ptr %4, align 8, !tbaa !3
  %30 = getelementptr inbounds nuw %struct.Gia_Man_t_, ptr %29, i32 0, i32 4
  %31 = load i32, ptr %30, align 8, !tbaa !75
  %32 = icmp slt i32 %28, %31
  br i1 %32, label %33, label %38

33:                                               ; preds = %27
  %34 = load ptr, ptr %4, align 8, !tbaa !3
  %35 = load i32, ptr %8, align 4, !tbaa !26
  %36 = call ptr @Gia_ManObj(ptr noundef %34, i32 noundef %35)
  store ptr %36, ptr %5, align 8, !tbaa !42
  %37 = icmp ne ptr %36, null
  br label %38

38:                                               ; preds = %33, %27
  %39 = phi i1 [ false, %27 ], [ %37, %33 ]
  br i1 %39, label %40, label %57

40:                                               ; preds = %38
  %41 = load ptr, ptr %5, align 8, !tbaa !42
  %42 = call i32 @Gia_ObjIsCo(ptr noundef %41)
  %43 = icmp ne i32 %42, 0
  br i1 %43, label %44, label %45

44:                                               ; preds = %40
  br label %54

45:                                               ; preds = %40
  %46 = load ptr, ptr %3, align 8, !tbaa !8
  %47 = load ptr, ptr %5, align 8, !tbaa !42
  %48 = call i32 @Gia_ObjValue(ptr noundef %47)
  %49 = call i32 @Abc_Lit2Var(i32 noundef %48)
  %50 = call ptr @Aig_ManObj(ptr noundef %46, i32 noundef %49)
  store ptr %50, ptr %6, align 8, !tbaa !10
  %51 = load i32, ptr %8, align 4, !tbaa !26
  %52 = load ptr, ptr %6, align 8, !tbaa !10
  %53 = getelementptr inbounds nuw %struct.Aig_Obj_t_, ptr %52, i32 0, i32 6
  store i32 %51, ptr %53, align 8, !tbaa !12
  br label %54

54:                                               ; preds = %45, %44
  %55 = load i32, ptr %8, align 4, !tbaa !26
  %56 = add nsw i32 %55, 1
  store i32 %56, ptr %8, align 4, !tbaa !26
  br label %27, !llvm.loop !103

57:                                               ; preds = %38
  store i32 0, ptr %8, align 4, !tbaa !26
  br label %58

58:                                               ; preds = %108, %57
  %59 = load i32, ptr %8, align 4, !tbaa !26
  %60 = load ptr, ptr %3, align 8, !tbaa !8
  %61 = getelementptr inbounds nuw %struct.Aig_Man_t_, ptr %60, i32 0, i32 4
  %62 = load ptr, ptr %61, align 8, !tbaa !60
  %63 = call i32 @Vec_PtrSize(ptr noundef %62)
  %64 = icmp slt i32 %59, %63
  br i1 %64, label %65, label %71

65:                                               ; preds = %58
  %66 = load ptr, ptr %3, align 8, !tbaa !8
  %67 = getelementptr inbounds nuw %struct.Aig_Man_t_, ptr %66, i32 0, i32 4
  %68 = load ptr, ptr %67, align 8, !tbaa !60
  %69 = load i32, ptr %8, align 4, !tbaa !26
  %70 = call ptr @Vec_PtrEntry(ptr noundef %68, i32 noundef %69)
  store ptr %70, ptr %6, align 8, !tbaa !10
  br label %71

71:                                               ; preds = %65, %58
  %72 = phi i1 [ false, %58 ], [ true, %65 ]
  br i1 %72, label %73, label %111

73:                                               ; preds = %71
  %74 = load ptr, ptr %6, align 8, !tbaa !10
  %75 = icmp eq ptr %74, null
  br i1 %75, label %76, label %77

76:                                               ; preds = %73
  br label %107

77:                                               ; preds = %73
  %78 = load ptr, ptr %6, align 8, !tbaa !10
  %79 = call i32 @Aig_ObjIsCo(ptr noundef %78)
  %80 = icmp ne i32 %79, 0
  br i1 %80, label %81, label %82

81:                                               ; preds = %77
  br label %108

82:                                               ; preds = %77
  %83 = load ptr, ptr %3, align 8, !tbaa !8
  %84 = getelementptr inbounds nuw %struct.Aig_Man_t_, ptr %83, i32 0, i32 31
  %85 = load ptr, ptr %84, align 8, !tbaa !104
  %86 = load i32, ptr %8, align 4, !tbaa !26
  %87 = sext i32 %86 to i64
  %88 = getelementptr inbounds ptr, ptr %85, i64 %87
  %89 = load ptr, ptr %88, align 8, !tbaa !10
  %90 = icmp eq ptr %89, null
  br i1 %90, label %91, label %92

91:                                               ; preds = %82
  br label %108

92:                                               ; preds = %82
  %93 = load ptr, ptr %3, align 8, !tbaa !8
  %94 = getelementptr inbounds nuw %struct.Aig_Man_t_, ptr %93, i32 0, i32 31
  %95 = load ptr, ptr %94, align 8, !tbaa !104
  %96 = load i32, ptr %8, align 4, !tbaa !26
  %97 = sext i32 %96 to i64
  %98 = getelementptr inbounds ptr, ptr %95, i64 %97
  %99 = load ptr, ptr %98, align 8, !tbaa !10
  store ptr %99, ptr %7, align 8, !tbaa !10
  %100 = load ptr, ptr %4, align 8, !tbaa !3
  %101 = load ptr, ptr %6, align 8, !tbaa !10
  %102 = getelementptr inbounds nuw %struct.Aig_Obj_t_, ptr %101, i32 0, i32 6
  %103 = load i32, ptr %102, align 8, !tbaa !12
  %104 = load ptr, ptr %7, align 8, !tbaa !10
  %105 = getelementptr inbounds nuw %struct.Aig_Obj_t_, ptr %104, i32 0, i32 6
  %106 = load i32, ptr %105, align 8, !tbaa !12
  call void @Gia_ObjSetRepr(ptr noundef %100, i32 noundef %103, i32 noundef %106)
  br label %107

107:                                              ; preds = %92, %76
  br label %108

108:                                              ; preds = %107, %91, %81
  %109 = load i32, ptr %8, align 4, !tbaa !26
  %110 = add nsw i32 %109, 1
  store i32 %110, ptr %8, align 4, !tbaa !26
  br label %58, !llvm.loop !105

111:                                              ; preds = %71
  %112 = load ptr, ptr %4, align 8, !tbaa !3
  %113 = call ptr @Gia_ManDeriveNexts(ptr noundef %112)
  %114 = load ptr, ptr %4, align 8, !tbaa !3
  %115 = getelementptr inbounds nuw %struct.Gia_Man_t_, ptr %114, i32 0, i32 28
  store ptr %113, ptr %115, align 8, !tbaa !27
  call void @llvm.lifetime.end.p0(i64 4, ptr %8) #12
  call void @llvm.lifetime.end.p0(i64 8, ptr %7) #12
  call void @llvm.lifetime.end.p0(i64 8, ptr %6) #12
  call void @llvm.lifetime.end.p0(i64 8, ptr %5) #12
  ret void
}