; Function Attrs: nounwind uwtable
define void @Gia_ManReprFromAigRepr(ptr noundef readonly captures(none) %0, ptr noundef initializes((192, 200)) %1) local_unnamed_addr #0 {
  %3 = getelementptr i8, ptr %1, i64 24
  %.val43 = load i32, ptr %3, align 8, !tbaa !73
  %4 = sext i32 %.val43 to i64
  %5 = tail call noalias ptr @calloc(i64 noundef %4, i64 noundef 4) #20
  %6 = getelementptr inbounds nuw i8, ptr %1, i64 192
  store ptr %5, ptr %6, align 8, !tbaa !94
  %7 = icmp sgt i32 %.val43, 0
  br i1 %7, label %.lr.ph, label %.critedge

.preheader:                                       ; preds = %.lr.ph
  %8 = getelementptr i8, ptr %1, i64 32
  %9 = icmp sgt i32 %.val42, 0
  br i1 %9, label %.lr.ph55, label %.critedge

.lr.ph55:                                         ; preds = %.preheader
  %10 = getelementptr i8, ptr %0, i64 32
  br label %16

.lr.ph:                                           ; preds = %2, %.lr.ph
  %indvars.iv = phi i64 [ %indvars.iv.next, %.lr.ph ], [ 0, %2 ]
  %.val46 = load ptr, ptr %6, align 8, !tbaa !94
  %11 = getelementptr inbounds nuw %struct.Gia_Rpr_t_, ptr %.val46, i64 %indvars.iv
  %12 = load i32, ptr %11, align 4
  %13 = or i32 %12, 268435455
  store i32 %13, ptr %11, align 4
  %indvars.iv.next = add nuw nsw i64 %indvars.iv, 1
  %.val42 = load i32, ptr %3, align 8, !tbaa !73
  %14 = sext i32 %.val42 to i64
  %15 = icmp slt i64 %indvars.iv.next, %14
  br i1 %15, label %.lr.ph, label %.preheader, !llvm.loop !97

16:                                               ; preds = %.lr.ph55, %31
  %17 = phi i32 [ %.val42, %.lr.ph55 ], [ %32, %31 ]
  %indvars.iv61 = phi i64 [ 0, %.lr.ph55 ], [ %indvars.iv.next62, %31 ]
  %.val = load ptr, ptr %8, align 8, !tbaa !41
  %18 = getelementptr inbounds nuw %struct.Gia_Obj_t_, ptr %.val, i64 %indvars.iv61
  %.not = icmp eq ptr %.val, null
  br i1 %.not, label %.critedge, label %19

19:                                               ; preds = %16
  %.val44 = load i64, ptr %18, align 4
  %20 = and i64 %.val44, 2147483648
  %.not.i = icmp eq i64 %20, 0
  %21 = and i64 %.val44, 536870911
  %22 = icmp eq i64 %21, 536870911
  %narrow.i.not = or i1 %.not.i, %22
  br i1 %narrow.i.not, label %Aig_ManObj.exit, label %31

Aig_ManObj.exit:                                  ; preds = %19
  %23 = getelementptr i8, ptr %18, i64 8
  %.val48 = load i32, ptr %23, align 4, !tbaa !90
  %24 = ashr i32 %.val48, 1
  %.val45 = load ptr, ptr %10, align 8, !tbaa !46, !nonnull !98, !noundef !98
  %25 = getelementptr i8, ptr %.val45, i64 8
  %.val.i = load ptr, ptr %25, align 8, !tbaa !59
  %26 = sext i32 %24 to i64
  %27 = getelementptr inbounds ptr, ptr %.val.i, i64 %26
  %28 = load ptr, ptr %27, align 8, !tbaa !60
  %29 = getelementptr inbounds nuw i8, ptr %28, i64 40
  %30 = trunc nuw nsw i64 %indvars.iv61 to i32
  store i32 %30, ptr %29, align 8, !tbaa !3
  %.pre = load i32, ptr %3, align 8, !tbaa !73
  br label %31

31:                                               ; preds = %19, %Aig_ManObj.exit
  %32 = phi i32 [ %17, %19 ], [ %.pre, %Aig_ManObj.exit ]
  %indvars.iv.next62 = add nuw nsw i64 %indvars.iv61, 1
  %33 = sext i32 %32 to i64
  %34 = icmp slt i64 %indvars.iv.next62, %33
  br i1 %34, label %16, label %.critedge, !llvm.loop !99

.critedge:                                        ; preds = %16, %31, %2, %.preheader
  %35 = getelementptr inbounds nuw i8, ptr %0, i64 32
  %36 = load ptr, ptr %35, align 8, !tbaa !46
  %37 = getelementptr i8, ptr %36, i64 4
  %.val3957 = load i32, ptr %37, align 4, !tbaa !48
  %38 = icmp sgt i32 %.val3957, 0
  br i1 %38, label %.lr.ph59, label %.critedge2

.lr.ph59:                                         ; preds = %.critedge
  %39 = getelementptr inbounds nuw i8, ptr %0, i64 256
  br label %40

40:                                               ; preds = %.lr.ph59, %65
  %41 = phi ptr [ %36, %.lr.ph59 ], [ %66, %65 ]
  %indvars.iv64 = phi i64 [ 0, %.lr.ph59 ], [ %indvars.iv.next65, %65 ]
  %42 = getelementptr i8, ptr %41, i64 8
  %.val40 = load ptr, ptr %42, align 8, !tbaa !59
  %43 = getelementptr inbounds nuw ptr, ptr %.val40, i64 %indvars.iv64
  %44 = load ptr, ptr %43, align 8, !tbaa !60
  %45 = icmp eq ptr %44, null
  br i1 %45, label %65, label %46

46:                                               ; preds = %40
  %47 = getelementptr i8, ptr %44, i64 24
  %.val41 = load i64, ptr %47, align 8
  %48 = and i64 %.val41, 7
  %.not51 = icmp eq i64 %48, 3
  br i1 %.not51, label %65, label %49

49:                                               ; preds = %46
  %50 = load ptr, ptr %39, align 8, !tbaa !100
  %51 = getelementptr inbounds nuw ptr, ptr %50, i64 %indvars.iv64
  %52 = load ptr, ptr %51, align 8, !tbaa !25
  %53 = icmp eq ptr %52, null
  br i1 %53, label %65, label %54

54:                                               ; preds = %49
  %55 = getelementptr inbounds nuw i8, ptr %44, i64 40
  %56 = load i32, ptr %55, align 8, !tbaa !3
  %57 = getelementptr inbounds nuw i8, ptr %52, i64 40
  %58 = load i32, ptr %57, align 8, !tbaa !3
  %.val47 = load ptr, ptr %6, align 8, !tbaa !94
  %59 = sext i32 %56 to i64
  %60 = getelementptr inbounds %struct.Gia_Rpr_t_, ptr %.val47, i64 %59
  %61 = load i32, ptr %60, align 4
  %62 = and i32 %58, 268435455
  %63 = and i32 %61, -268435456
  %64 = or disjoint i32 %63, %62
  store i32 %64, ptr %60, align 4
  %.pre67 = load ptr, ptr %35, align 8, !tbaa !46
  br label %65

65:                                               ; preds = %54, %40, %49, %46
  %66 = phi ptr [ %.pre67, %54 ], [ %41, %40 ], [ %41, %49 ], [ %41, %46 ]
  %indvars.iv.next65 = add nuw nsw i64 %indvars.iv64, 1
  %67 = getelementptr i8, ptr %66, i64 4
  %.val39 = load i32, ptr %67, align 4, !tbaa !48
  %68 = sext i32 %.val39 to i64
  %69 = icmp slt i64 %indvars.iv.next65, %68
  br i1 %69, label %40, label %.critedge2, !llvm.loop !101

.critedge2:                                       ; preds = %65, %.critedge
  %70 = tail call ptr @Gia_ManDeriveNexts(ptr noundef %1) #17
  %71 = getelementptr inbounds nuw i8, ptr %1, i64 200
  store ptr %70, ptr %71, align 8, !tbaa !26
  ret void
}